	.file	"DAXPY.cpp"
	.text
	.globl	_Z5daxpyPiS_ijP8timespecS1_
	.type	_Z5daxpyPiS_ijP8timespecS1_, @function
_Z5daxpyPiS_ijP8timespecS1_:
.LFB2:
	.cfi_startproc
	pushq	%rbp
	.cfi_def_cfa_offset 16
	.cfi_offset 6, -16
	movq	%rsp, %rbp
	.cfi_def_cfa_register 6
	subq	$64, %rsp
	movq	%rdi, -24(%rbp)
	movq	%rsi, -32(%rbp)
	movl	%edx, -36(%rbp)
	movl	%ecx, -40(%rbp)
	movq	%r8, -48(%rbp)
	movq	%r9, -56(%rbp)
	movq	-48(%rbp), %rax
	movq	%rax, %rsi
	movl	$0, %edi
	call	clock_gettime
	movl	$0, -4(%rbp)
.L3:
	movl	-4(%rbp), %eax
	cmpl	-40(%rbp), %eax
	jnb	.L2
	movl	-4(%rbp), %eax
	leaq	0(,%rax,4), %rdx
	movq	-24(%rbp), %rax
	addq	%rax, %rdx
	movl	-4(%rbp), %eax
	leaq	0(,%rax,4), %rcx
	movq	-24(%rbp), %rax
	addq	%rcx, %rax
	movl	(%rax), %ecx
	movl	-4(%rbp), %eax
	leaq	0(,%rax,4), %rsi
	movq	-32(%rbp), %rax
	addq	%rsi, %rax
	movl	(%rax), %eax
	imull	-36(%rbp), %eax
	addl	%ecx, %eax
	movl	%eax, (%rdx)
	addl	$1, -4(%rbp)
	jmp	.L3
.L2:
	movq	-56(%rbp), %rax
	movq	%rax, %rsi
	movl	$0, %edi
	call	clock_gettime
	nop
	leave
	.cfi_def_cfa 7, 8
	ret
	.cfi_endproc
.LFE2:
	.size	_Z5daxpyPiS_ijP8timespecS1_, .-_Z5daxpyPiS_ijP8timespecS1_
	.section	.rodata
	.align 8
.LC0:
	.string	"ERROR: falta tam del vector y constante\n"
.LC2:
	.string	"y[0] = %i, y[%i] = %i\n"
.LC3:
	.string	"\nTiempo (seg.) = %11.9f\n"
	.text
	.globl	main
	.type	main, @function
main:
.LFB3:
	.cfi_startproc
	pushq	%rbp
	.cfi_def_cfa_offset 16
	.cfi_offset 6, -16
	movq	%rsp, %rbp
	.cfi_def_cfa_register 6
	addq	$-128, %rsp
	movl	%edi, -100(%rbp)
	movq	%rsi, -112(%rbp)
	movq	%fs:40, %rax
	movq	%rax, -8(%rbp)
	xorl	%eax, %eax
	cmpl	$2, -100(%rbp)
	jg	.L5
	movq	stderr(%rip), %rax
	movq	%rax, %rcx
	movl	$40, %edx
	movl	$1, %esi
	movl	$.LC0, %edi
	call	fwrite
	movl	$1, %edi
	call	exit
.L5:
	movq	-112(%rbp), %rax
	addq	$8, %rax
	movq	(%rax), %rax
	movl	$10, %edx
	movl	$0, %esi
	movq	%rax, %rdi
	call	strtol
	movl	%eax, -80(%rbp)
	movq	-112(%rbp), %rax
	addq	$16, %rax
	movq	(%rax), %rax
	movl	$10, %edx
	movl	$0, %esi
	movq	%rax, %rdi
	call	strtol
	movl	%eax, -76(%rbp)
	movl	-80(%rbp), %eax
	salq	$2, %rax
	movq	%rax, %rdi
	call	malloc
	movq	%rax, -72(%rbp)
	movl	-80(%rbp), %eax
	salq	$2, %rax
	movq	%rax, %rdi
	call	malloc
	movq	%rax, -64(%rbp)
	movl	$0, -84(%rbp)
.L7:
	movl	-84(%rbp), %eax
	cmpl	-80(%rbp), %eax
	jnb	.L6
	movl	-84(%rbp), %eax
	leaq	0(,%rax,4), %rdx
	movq	-72(%rbp), %rax
	addq	%rdx, %rax
	movl	-84(%rbp), %edx
	addl	$2, %edx
	movl	%edx, (%rax)
	movl	-84(%rbp), %eax
	leaq	0(,%rax,4), %rdx
	movq	-64(%rbp), %rax
	addq	%rdx, %rax
	movl	-84(%rbp), %edx
	addl	%edx, %edx
	movl	%edx, (%rax)
	addl	$1, -84(%rbp)
	jmp	.L7
.L6:
	leaq	-32(%rbp), %r8
	leaq	-48(%rbp), %rdi
	movl	-80(%rbp), %ecx
	movl	-76(%rbp), %edx
	movq	-64(%rbp), %rsi
	movq	-72(%rbp), %rax
	movq	%r8, %r9
	movq	%rdi, %r8
	movq	%rax, %rdi
	call	_Z5daxpyPiS_ijP8timespecS1_
	movq	-32(%rbp), %rdx
	movq	-48(%rbp), %rax
	subq	%rax, %rdx
	movq	%rdx, %rax
	pxor	%xmm1, %xmm1
	cvtsi2sdq	%rax, %xmm1
	movq	-24(%rbp), %rdx
	movq	-40(%rbp), %rax
	subq	%rax, %rdx
	movq	%rdx, %rax
	pxor	%xmm0, %xmm0
	cvtsi2sdq	%rax, %xmm0
	movsd	.LC1(%rip), %xmm2
	divsd	%xmm2, %xmm0
	addsd	%xmm1, %xmm0
	movsd	%xmm0, -56(%rbp)
	movl	-80(%rbp), %eax
	subl	$1, %eax
	movl	%eax, %eax
	leaq	0(,%rax,4), %rdx
	movq	-72(%rbp), %rax
	addq	%rdx, %rax
	movl	(%rax), %edx
	movl	-80(%rbp), %eax
	leal	-1(%rax), %esi
	movq	-72(%rbp), %rax
	movl	(%rax), %eax
	movl	%edx, %ecx
	movl	%esi, %edx
	movl	%eax, %esi
	movl	$.LC2, %edi
	movl	$0, %eax
	call	printf
	movq	-56(%rbp), %rax
	movq	%rax, -120(%rbp)
	movsd	-120(%rbp), %xmm0
	movl	$.LC3, %edi
	movl	$1, %eax
	call	printf
	movq	-72(%rbp), %rax
	movq	%rax, %rdi
	call	free
	movq	-64(%rbp), %rax
	movq	%rax, %rdi
	call	free
	movl	$0, %eax
	movq	-8(%rbp), %rcx
	xorq	%fs:40, %rcx
	je	.L9
	call	__stack_chk_fail
.L9:
	leave
	.cfi_def_cfa 7, 8
	ret
	.cfi_endproc
.LFE3:
	.size	main, .-main
	.section	.rodata
	.align 8
.LC1:
	.long	0
	.long	1104006501
	.ident	"GCC: (Ubuntu 5.4.0-6ubuntu1~16.04.6) 5.4.0 20160609"
	.section	.note.GNU-stack,"",@progbits
