	.file	"DAXPY.cpp"
	.section	.text.unlikely,"ax",@progbits
.LCOLDB0:
	.text
.LHOTB0:
	.p2align 4,,15
	.globl	_Z5daxpyPiS_ijP8timespecS1_
	.type	_Z5daxpyPiS_ijP8timespecS1_, @function
_Z5daxpyPiS_ijP8timespecS1_:
.LFB45:
	.cfi_startproc
	pushq	%r14
	.cfi_def_cfa_offset 16
	.cfi_offset 14, -16
	pushq	%r13
	.cfi_def_cfa_offset 24
	.cfi_offset 13, -24
	movq	%rsi, %r13
	pushq	%r12
	.cfi_def_cfa_offset 32
	.cfi_offset 12, -32
	pushq	%rbp
	.cfi_def_cfa_offset 40
	.cfi_offset 6, -40
	movq	%r8, %rsi
	pushq	%rbx
	.cfi_def_cfa_offset 48
	.cfi_offset 3, -48
	movl	%ecx, %ebp
	movq	%rdi, %rbx
	xorl	%edi, %edi
	movl	%edx, %r12d
	movq	%r9, %r14
	call	clock_gettime
	xorl	%eax, %eax
	testl	%ebp, %ebp
	je	.L3
	.p2align 4,,10
	.p2align 3
.L5:
	movl	0(%r13,%rax,4), %esi
	imull	%r12d, %esi
	addl	%esi, (%rbx,%rax,4)
	addq	$1, %rax
	cmpl	%eax, %ebp
	ja	.L5
.L3:
	popq	%rbx
	.cfi_def_cfa_offset 40
	movq	%r14, %rsi
	xorl	%edi, %edi
	popq	%rbp
	.cfi_def_cfa_offset 32
	popq	%r12
	.cfi_def_cfa_offset 24
	popq	%r13
	.cfi_def_cfa_offset 16
	popq	%r14
	.cfi_def_cfa_offset 8
	jmp	clock_gettime
	.cfi_endproc
.LFE45:
	.size	_Z5daxpyPiS_ijP8timespecS1_, .-_Z5daxpyPiS_ijP8timespecS1_
	.section	.text.unlikely
.LCOLDE0:
	.text
.LHOTE0:
	.section	.rodata.str1.8,"aMS",@progbits,1
	.align 8
.LC1:
	.string	"ERROR: falta tam del vector y constante\n"
	.section	.rodata.str1.1,"aMS",@progbits,1
.LC3:
	.string	"y[0] = %i, y[%i] = %i\n"
.LC4:
	.string	"\nTiempo (seg.) = %11.9f\n"
	.section	.text.unlikely
.LCOLDB5:
	.section	.text.startup,"ax",@progbits
.LHOTB5:
	.p2align 4,,15
	.globl	main
	.type	main, @function
main:
.LFB46:
	.cfi_startproc
	pushq	%r13
	.cfi_def_cfa_offset 16
	.cfi_offset 13, -16
	pushq	%r12
	.cfi_def_cfa_offset 24
	.cfi_offset 12, -24
	pushq	%rbp
	.cfi_def_cfa_offset 32
	.cfi_offset 6, -32
	pushq	%rbx
	.cfi_def_cfa_offset 40
	.cfi_offset 3, -40
	subq	$72, %rsp
	.cfi_def_cfa_offset 112
	movq	%fs:40, %rax
	movq	%rax, 56(%rsp)
	xorl	%eax, %eax
	cmpl	$2, %edi
	jle	.L18
	movq	8(%rsi), %rdi
	movq	%rsi, %rbx
	movl	$10, %edx
	xorl	%esi, %esi
	call	strtol
	movq	16(%rbx), %rdi
	movq	%rax, %r12
	xorl	%esi, %esi
	movl	%r12d, %ebp
	movl	$10, %edx
	salq	$2, %rbp
	call	strtol
	movq	%rbp, %rdi
	movq	%rax, %r13
	call	malloc
	movq	%rbp, %rdi
	movq	%rax, %rbx
	call	malloc
	testl	%r12d, %r12d
	movq	%rax, %rbp
	je	.L12
	leal	2(%r12), %edx
	xorl	%edi, %edi
	xorl	%esi, %esi
	movl	$2, %eax
	.p2align 4,,10
	.p2align 3
.L13:
	movl	%eax, (%rbx,%rsi)
	addl	$1, %eax
	movl	%edi, 0(%rbp,%rsi)
	addq	$4, %rsi
	addl	$2, %edi
	cmpl	%edx, %eax
	jne	.L13
.L12:
	leaq	32(%rsp), %r9
	leaq	16(%rsp), %r8
	movl	%r12d, %ecx
	movl	%r13d, %edx
	movq	%rbp, %rsi
	movq	%rbx, %rdi
	call	_Z5daxpyPiS_ijP8timespecS1_
	movq	40(%rsp), %rax
	subq	24(%rsp), %rax
	movl	$.LC3, %esi
	pxor	%xmm0, %xmm0
	movl	(%rbx), %edx
	pxor	%xmm1, %xmm1
	movl	$1, %edi
	cvtsi2sdq	%rax, %xmm0
	movq	32(%rsp), %rax
	subq	16(%rsp), %rax
	cvtsi2sdq	%rax, %xmm1
	leal	-1(%r12), %eax
	movl	(%rbx,%rax,4), %r8d
	movq	%rax, %rcx
	xorl	%eax, %eax
	divsd	.LC2(%rip), %xmm0
	addsd	%xmm1, %xmm0
	movsd	%xmm0, 8(%rsp)
	call	__printf_chk
	movsd	8(%rsp), %xmm0
	movl	$.LC4, %esi
	movl	$1, %edi
	movl	$1, %eax
	call	__printf_chk
	movq	%rbx, %rdi
	call	free
	movq	%rbp, %rdi
	call	free
	xorl	%eax, %eax
	movq	56(%rsp), %rcx
	xorq	%fs:40, %rcx
	jne	.L19
	addq	$72, %rsp
	.cfi_remember_state
	.cfi_def_cfa_offset 40
	popq	%rbx
	.cfi_def_cfa_offset 32
	popq	%rbp
	.cfi_def_cfa_offset 24
	popq	%r12
	.cfi_def_cfa_offset 16
	popq	%r13
	.cfi_def_cfa_offset 8
	ret
.L18:
	.cfi_restore_state
	movq	stderr(%rip), %rcx
	movl	$.LC1, %edi
	movl	$40, %edx
	movl	$1, %esi
	call	fwrite
	movl	$1, %edi
	call	exit
.L19:
	call	__stack_chk_fail
	.cfi_endproc
.LFE46:
	.size	main, .-main
	.section	.text.unlikely
.LCOLDE5:
	.section	.text.startup
.LHOTE5:
	.section	.rodata.cst8,"aM",@progbits,8
	.align 8
.LC2:
	.long	0
	.long	1104006501
	.ident	"GCC: (Ubuntu 5.4.0-6ubuntu1~16.04.6) 5.4.0 20160609"
	.section	.note.GNU-stack,"",@progbits
